target datalayout = "e-m:e-p270:32:32-p271:32:32-p272:64:64-i64:64-i128:128-f80:128-n8:16:32:64-S128"
target triple = "x86_64-pc-linux-gnu"

%struct.MvcCoverStruct = type { i32, i32, i32, %struct.MvcListStruct, ptr, i32, ptr, ptr, ptr }
%struct.MvcListStruct = type { ptr, ptr, i32 }
%struct.MvcCubeStruct = type { ptr, i32, i32, [1 x i32] }

; Function Attrs: nounwind uwtable
define i32 @Mvc_CoverBestLiteral(ptr noundef %0, ptr noundef %1) #0 {
  %3 = alloca i32, align 4
  %4 = alloca ptr, align 8
  %5 = alloca ptr, align 8
  %6 = alloca ptr, align 8
  %7 = alloca i32, align 4
  %8 = alloca i32, align 4
  %9 = alloca i32, align 4
  %10 = alloca i32, align 4
  %11 = alloca i32, align 4
  %12 = alloca i32, align 4
  %13 = alloca i32, align 4
  store ptr %0, ptr %4, align 8
  store ptr %1, ptr %5, align 8
  store i32 1, ptr %13, align 4
  store i32 -1, ptr %10, align 4
  store i32 -1, ptr %11, align 4
  store i32 0, ptr %9, align 4
  br label %14

14:                                               ; preds = %88, %2
  %15 = load i32, ptr %9, align 4
  %16 = load ptr, ptr %4, align 8
  %17 = getelementptr inbounds %struct.MvcCoverStruct, ptr %16, i32 0, i32 2
  %18 = load i32, ptr %17, align 8
  %19 = icmp slt i32 %15, %18
  br i1 %19, label %20, label %91

20:                                               ; preds = %14
  %21 = load ptr, ptr %5, align 8
  %22 = icmp ne ptr %21, null
  br i1 %22, label %23, label %36

23:                                               ; preds = %20
  %24 = load ptr, ptr %5, align 8
  %25 = getelementptr inbounds %struct.MvcCubeStruct, ptr %24, i32 0, i32 3
  %26 = load i32, ptr %9, align 4
  %27 = ashr i32 %26, 5
  %28 = sext i32 %27 to i64
  %29 = getelementptr inbounds [1 x i32], ptr %25, i64 0, i64 %28
  %30 = load i32, ptr %29, align 4
  %31 = load i32, ptr %9, align 4
  %32 = and i32 %31, 31
  %33 = shl i32 1, %32
  %34 = and i32 %30, %33
  %35 = icmp ugt i32 %34, 0
  br i1 %35, label %36, label %87

36:                                               ; preds = %23, %20
  %37 = load i32, ptr %9, align 4
  %38 = ashr i32 %37, 5
  store i32 %38, ptr %7, align 4
  %39 = load i32, ptr %9, align 4
  %40 = and i32 %39, 31
  store i32 %40, ptr %8, align 4
  store i32 0, ptr %12, align 4
  %41 = load ptr, ptr %4, align 8
  %42 = getelementptr inbounds %struct.MvcCoverStruct, ptr %41, i32 0, i32 3
  %43 = getelementptr inbounds %struct.MvcListStruct, ptr %42, i32 0, i32 0
  %44 = load ptr, ptr %43, align 8
  store ptr %44, ptr %6, align 8
  br label %45

45:                                               ; preds = %63, %36
  %46 = load ptr, ptr %6, align 8
  %47 = icmp ne ptr %46, null
  br i1 %47, label %48, label %67

48:                                               ; preds = %45
  %49 = load ptr, ptr %6, align 8
  %50 = getelementptr inbounds %struct.MvcCubeStruct, ptr %49, i32 0, i32 3
  %51 = load i32, ptr %7, align 4
  %52 = sext i32 %51 to i64
  %53 = getelementptr inbounds [1 x i32], ptr %50, i64 0, i64 %52
  %54 = load i32, ptr %53, align 4
  %55 = load i32, ptr %8, align 4
  %56 = shl i32 1, %55
  %57 = and i32 %54, %56
  %58 = icmp ne i32 %57, 0
  br i1 %58, label %59, label %62

59:                                               ; preds = %48
  %60 = load i32, ptr %12, align 4
  %61 = add nsw i32 %60, 1
  store i32 %61, ptr %12, align 4
  br label %62

62:                                               ; preds = %59, %48
  br label %63

63:                                               ; preds = %62
  %64 = load ptr, ptr %6, align 8
  %65 = getelementptr inbounds %struct.MvcCubeStruct, ptr %64, i32 0, i32 0
  %66 = load ptr, ptr %65, align 8
  store ptr %66, ptr %6, align 8
  br label %45, !llvm.loop !9

67:                                               ; preds = %45
  %68 = load i32, ptr %13, align 4
  %69 = icmp ne i32 %68, 0
  br i1 %69, label %70, label %78

70:                                               ; preds = %67
  %71 = load i32, ptr %11, align 4
  %72 = load i32, ptr %12, align 4
  %73 = icmp slt i32 %71, %72
  br i1 %73, label %74, label %77

74:                                               ; preds = %70
  %75 = load i32, ptr %12, align 4
  store i32 %75, ptr %11, align 4
  %76 = load i32, ptr %9, align 4
  store i32 %76, ptr %10, align 4
  br label %77

77:                                               ; preds = %74, %70
  br label %86

78:                                               ; preds = %67
  %79 = load i32, ptr %11, align 4
  %80 = load i32, ptr %12, align 4
  %81 = icmp sle i32 %79, %80
  br i1 %81, label %82, label %85

82:                                               ; preds = %78
  %83 = load i32, ptr %12, align 4
  store i32 %83, ptr %11, align 4
  %84 = load i32, ptr %9, align 4
  store i32 %84, ptr %10, align 4
  br label %85

85:                                               ; preds = %82, %78
  br label %86

86:                                               ; preds = %85, %77
  br label %87

87:                                               ; preds = %86, %23
  br label %88

88:                                               ; preds = %87
  %89 = load i32, ptr %9, align 4
  %90 = add nsw i32 %89, 1
  store i32 %90, ptr %9, align 4
  br label %14, !llvm.loop !10

91:                                               ; preds = %14
  %92 = load i32, ptr %11, align 4
  %93 = icmp sgt i32 %92, 1
  br i1 %93, label %94, label %96

94:                                               ; preds = %91
  %95 = load i32, ptr %10, align 4
  store i32 %95, ptr %3, align 4
  br label %97

96:                                               ; preds = %91
  store i32 -1, ptr %3, align 4
  br label %97

97:                                               ; preds = %96, %94
  %98 = load i32, ptr %3, align 4
  ret i32 %98
}