; Function Attrs: nofree norecurse nosync nounwind memory(read, inaccessiblemem: none) uwtable
define i32 @Mvc_CoverBestLiteral(ptr noundef readonly captures(none) %0, ptr noundef readonly %1) local_unnamed_addr #0 {
  %3 = getelementptr inbounds nuw i8, ptr %0, i64 8
  %4 = load i32, ptr %3, align 8
  %5 = icmp sgt i32 %4, 0
  br i1 %5, label %.lr.ph48, label %._crit_edge49.thread

.lr.ph48:                                         ; preds = %2
  %.not = icmp eq ptr %1, null
  %6 = getelementptr inbounds nuw i8, ptr %1, i64 16
  %7 = getelementptr inbounds nuw i8, ptr %0, i64 16
  br i1 %.not, label %.lr.ph48.split.us, label %.lr.ph48.split

.lr.ph48.split.us:                                ; preds = %.lr.ph48
  %.03340.us = load ptr, ptr %7, align 8
  %.not3641.us = icmp eq ptr %.03340.us, null
  br i1 %.not3641.us, label %._crit_edge49.thread, label %.lr.ph.us

.lr.ph.us:                                        ; preds = %.lr.ph48.split.us, %._crit_edge.us
  %.02846.us = phi i32 [ %spec.select39.us, %._crit_edge.us ], [ -1, %.lr.ph48.split.us ]
  %.03045.us = phi i32 [ %spec.select38.us, %._crit_edge.us ], [ -1, %.lr.ph48.split.us ]
  %.03244.us = phi i32 [ %18, %._crit_edge.us ], [ 0, %.lr.ph48.split.us ]
  %8 = lshr i32 %.03244.us, 5
  %9 = and i32 %.03244.us, 31
  %10 = zext nneg i32 %8 to i64
  br label %11

11:                                               ; preds = %.lr.ph.us, %11
  %.03343.us = phi ptr [ %.03340.us, %.lr.ph.us ], [ %.033.us, %11 ]
  %.02742.us = phi i32 [ 0, %.lr.ph.us ], [ %spec.select.us, %11 ]
  %12 = getelementptr inbounds nuw i8, ptr %.03343.us, i64 16
  %13 = getelementptr inbounds nuw [1 x i32], ptr %12, i64 0, i64 %10
  %14 = load i32, ptr %13, align 4
  %15 = lshr i32 %14, %9
  %16 = and i32 %15, 1
  %spec.select.us = add nuw nsw i32 %16, %.02742.us
  %.033.us = load ptr, ptr %.03343.us, align 8
  %.not36.us = icmp eq ptr %.033.us, null
  br i1 %.not36.us, label %._crit_edge.us, label %11, !llvm.loop !7

._crit_edge.us:                                   ; preds = %11
  %17 = icmp slt i32 %.02846.us, %spec.select.us
  %spec.select38.us = select i1 %17, i32 %.03244.us, i32 %.03045.us
  %spec.select39.us = tail call i32 @llvm.smax.i32(i32 %.02846.us, i32 %spec.select.us)
  %18 = add nuw nsw i32 %.03244.us, 1
  %exitcond57.not = icmp eq i32 %18, %4
  br i1 %exitcond57.not, label %._crit_edge49, label %.lr.ph.us, !llvm.loop !8

.lr.ph48.split:                                   ; preds = %.lr.ph48, %33
  %.02846 = phi i32 [ %.129, %33 ], [ -1, %.lr.ph48 ]
  %.03045 = phi i32 [ %.131, %33 ], [ -1, %.lr.ph48 ]
  %.03244 = phi i32 [ %34, %33 ], [ 0, %.lr.ph48 ]
  %19 = lshr i32 %.03244, 5
  %20 = zext nneg i32 %19 to i64
  %21 = getelementptr inbounds nuw [1 x i32], ptr %6, i64 0, i64 %20
  %22 = load i32, ptr %21, align 4
  %23 = and i32 %.03244, 31
  %24 = shl nuw i32 1, %23
  %25 = and i32 %22, %24
  %.not35 = icmp eq i32 %25, 0
  br i1 %.not35, label %33, label %26

26:                                               ; preds = %.lr.ph48.split
  %.03340 = load ptr, ptr %7, align 8
  %.not3641 = icmp eq ptr %.03340, null
  br i1 %.not3641, label %._crit_edge, label %.lr.ph

.lr.ph:                                           ; preds = %26, %.lr.ph
  %.03343 = phi ptr [ %.033, %.lr.ph ], [ %.03340, %26 ]
  %.02742 = phi i32 [ %spec.select, %.lr.ph ], [ 0, %26 ]
  %27 = getelementptr inbounds nuw i8, ptr %.03343, i64 16
  %28 = getelementptr inbounds nuw [1 x i32], ptr %27, i64 0, i64 %20
  %29 = load i32, ptr %28, align 4
  %30 = lshr i32 %29, %23
  %31 = and i32 %30, 1
  %spec.select = add nuw nsw i32 %31, %.02742
  %.033 = load ptr, ptr %.03343, align 8
  %.not36 = icmp eq ptr %.033, null
  br i1 %.not36, label %._crit_edge, label %.lr.ph, !llvm.loop !7

._crit_edge:                                      ; preds = %.lr.ph, %26
  %.027.lcssa = phi i32 [ 0, %26 ], [ %spec.select, %.lr.ph ]
  %32 = icmp slt i32 %.02846, %.027.lcssa
  %spec.select38 = select i1 %32, i32 %.03244, i32 %.03045
  %spec.select39 = tail call i32 @llvm.smax.i32(i32 %.02846, i32 %.027.lcssa)
  br label %33

33:                                               ; preds = %._crit_edge, %.lr.ph48.split
  %.131 = phi i32 [ %.03045, %.lr.ph48.split ], [ %spec.select38, %._crit_edge ]
  %.129 = phi i32 [ %.02846, %.lr.ph48.split ], [ %spec.select39, %._crit_edge ]
  %34 = add nuw nsw i32 %.03244, 1
  %exitcond.not = icmp eq i32 %34, %4
  br i1 %exitcond.not, label %._crit_edge49, label %.lr.ph48.split, !llvm.loop !8

._crit_edge49:                                    ; preds = %33, %._crit_edge.us
  %.030.lcssa = phi i32 [ %spec.select38.us, %._crit_edge.us ], [ %.131, %33 ]
  %.028.lcssa = phi i32 [ %spec.select39.us, %._crit_edge.us ], [ %.129, %33 ]
  %.028.lcssa.fr = freeze i32 %.028.lcssa
  %35 = icmp sgt i32 %.028.lcssa.fr, 1
  %spec.select63 = select i1 %35, i32 %.030.lcssa, i32 -1
  br label %._crit_edge49.thread

._crit_edge49.thread:                             ; preds = %.lr.ph48.split.us, %._crit_edge49, %2
  %36 = phi i32 [ -1, %2 ], [ %spec.select63, %._crit_edge49 ], [ -1, %.lr.ph48.split.us ]
  ret i32 %36
}